target datalayout = "e-m:e-p270:32:32-p271:32:32-p272:64:64-i64:64-i128:128-f80:128-n8:16:32:64-S128"
target triple = "x86_64-pc-linux-gnu"

%"struct.std::_Rb_tree_key_compare" = type { %"struct.std::less" }
%"struct.std::less" = type { i8 }
%"struct.std::_Rb_tree_header" = type { %"struct.std::_Rb_tree_node_base", i64 }
%"struct.std::_Rb_tree_node_base" = type { i32, ptr, ptr, ptr }
%"struct.casadi::CvodesMemory" = type { %"struct.casadi::SundialsMemory.base", ptr, ptr, i32, double, double }
%"struct.casadi::SundialsMemory.base" = type <{ %"struct.casadi::IntegratorMemory", ptr, ptr, ptr, ptr, ptr, ptr, i8, [7 x i8], ptr, ptr, ptr, ptr, ptr, ptr, ptr, ptr, i64, i64, i64, i64, i32, i32, double, double, double, double, i64, i64, i64, i64, i64, i64, i32, i32, double, double, double, double, i64, i64, i64, i64, i64, i64, i64, i64, ptr, ptr, i32, [4 x i8], ptr, i32 }>
%"struct.casadi::IntegratorMemory" = type { %"struct.casadi::OracleMemory", i64, double, double, double }
%"struct.casadi::OracleMemory" = type { %"struct.casadi::FunctionMemory", ptr, ptr, ptr, ptr, %"class.std::vector.64" }
%"struct.casadi::FunctionMemory" = type { %"struct.casadi::ProtoFunctionMemory" }
%"struct.casadi::ProtoFunctionMemory" = type { %"class.std::map.59", ptr }
%"class.std::map.59" = type { %"class.std::_Rb_tree.60" }
%"class.std::_Rb_tree.60" = type { %"struct.std::_Rb_tree<std::__cxx11::basic_string<char>, std::pair<const std::__cxx11::basic_string<char>, casadi::FStats>, std::_Select1st<std::pair<const std::__cxx11::basic_string<char>, casadi::FStats>>, std::less<std::__cxx11::basic_string<char>>>::_Rb_tree_impl" }
%"struct.std::_Rb_tree<std::__cxx11::basic_string<char>, std::pair<const std::__cxx11::basic_string<char>, casadi::FStats>, std::_Select1st<std::pair<const std::__cxx11::basic_string<char>, casadi::FStats>>, std::less<std::__cxx11::basic_string<char>>>::_Rb_tree_impl" = type { %"struct.std::_Rb_tree_key_compare", %"struct.std::_Rb_tree_header" }
%"class.std::vector.64" = type { %"struct.std::_Vector_base.65" }
%"struct.std::_Vector_base.65" = type { %"struct.std::_Vector_base<casadi::LocalOracleMemory *, std::allocator<casadi::LocalOracleMemory *>>::_Vector_impl" }
%"struct.std::_Vector_base<casadi::LocalOracleMemory *, std::allocator<casadi::LocalOracleMemory *>>::_Vector_impl" = type { %"struct.std::_Vector_base<casadi::LocalOracleMemory *, std::allocator<casadi::LocalOracleMemory *>>::_Vector_impl_data" }
%"struct.std::_Vector_base<casadi::LocalOracleMemory *, std::allocator<casadi::LocalOracleMemory *>>::_Vector_impl_data" = type { ptr, ptr, ptr }
%struct._generic_N_Vector = type { ptr, ptr }
%struct._N_VectorContent_Serial = type { i64, i32, ptr }

@_ZTISt9exception = external constant ptr
@.str.102 = private unnamed_addr constant [17 x i8] c"jtimesF failed: \00", align 1

; Function Attrs: mustprogress uwtable
define noundef i32 @_ZN6casadi15CvodesInterface7jtimesFEP17_generic_N_VectorS2_dS2_S2_PvS2_(ptr noundef %0, ptr noundef %1, double noundef %2, ptr noundef %3, ptr noundef %4, ptr noundef %5, ptr noundef %6) #4 align 2 personality ptr @__gxx_personality_v0 {
  %8 = alloca i32, align 4
  %9 = alloca ptr, align 8
  %10 = alloca ptr, align 8
  %11 = alloca double, align 8
  %12 = alloca ptr, align 8
  %13 = alloca ptr, align 8
  %14 = alloca ptr, align 8
  %15 = alloca ptr, align 8
  %16 = alloca ptr, align 8
  %17 = alloca ptr, align 8
  %18 = alloca i32, align 4
  %19 = alloca ptr, align 8
  %20 = alloca ptr, align 8
  store ptr %0, ptr %9, align 8
  store ptr %1, ptr %10, align 8
  store double %2, ptr %11, align 8
  store ptr %3, ptr %12, align 8
  store ptr %4, ptr %13, align 8
  store ptr %5, ptr %14, align 8
  store ptr %6, ptr %15, align 8
  %21 = load ptr, ptr %14, align 8
  %22 = invoke noundef ptr @_ZN6casadi15CvodesInterface6to_memEPv(ptr noundef %21)
          to label %23 unwind label %49

23:                                               ; preds = %7
  store ptr %22, ptr %16, align 8
  %24 = load ptr, ptr %16, align 8
  %25 = getelementptr inbounds %"struct.casadi::CvodesMemory", ptr %24, i32 0, i32 1
  %26 = load ptr, ptr %25, align 8
  store ptr %26, ptr %19, align 8
  %27 = load ptr, ptr %19, align 8
  %28 = load ptr, ptr %16, align 8
  %29 = load double, ptr %11, align 8
  %30 = load ptr, ptr %12, align 8
  %31 = getelementptr inbounds %struct._generic_N_Vector, ptr %30, i32 0, i32 0
  %32 = load ptr, ptr %31, align 8
  %33 = getelementptr inbounds %struct._N_VectorContent_Serial, ptr %32, i32 0, i32 2
  %34 = load ptr, ptr %33, align 8
  %35 = load ptr, ptr %9, align 8
  %36 = getelementptr inbounds %struct._generic_N_Vector, ptr %35, i32 0, i32 0
  %37 = load ptr, ptr %36, align 8
  %38 = getelementptr inbounds %struct._N_VectorContent_Serial, ptr %37, i32 0, i32 2
  %39 = load ptr, ptr %38, align 8
  %40 = load ptr, ptr %10, align 8
  %41 = getelementptr inbounds %struct._generic_N_Vector, ptr %40, i32 0, i32 0
  %42 = load ptr, ptr %41, align 8
  %43 = getelementptr inbounds %struct._N_VectorContent_Serial, ptr %42, i32 0, i32 2
  %44 = load ptr, ptr %43, align 8
  %45 = invoke noundef i32 @_ZNK6casadi17SundialsInterface12calc_jtimesFEPNS_14SundialsMemoryEdPKdS4_S4_S4_PdS5_(ptr noundef nonnull align 8 dereferenceable(2120) %27, ptr noundef %28, double noundef %29, ptr noundef %34, ptr noundef null, ptr noundef %39, ptr noundef null, ptr noundef %44, ptr noundef null)
          to label %46 unwind label %49

46:                                               ; preds = %23
  %47 = icmp ne i32 %45, 0
  br i1 %47, label %48, label %73

48:                                               ; preds = %46
  store i32 1, ptr %8, align 4
  br label %80

49:                                               ; preds = %23, %7
  %50 = landingpad { ptr, i32 }
          catch ptr @_ZTISt9exception
  %51 = extractvalue { ptr, i32 } %50, 0
  store ptr %51, ptr %17, align 8
  %52 = extractvalue { ptr, i32 } %50, 1
  store i32 %52, ptr %18, align 4
  br label %53

53:                                               ; preds = %49
  %54 = load i32, ptr %18, align 4
  %55 = call i32 @llvm.eh.typeid.for(ptr @_ZTISt9exception) #3
  %56 = icmp eq i32 %54, %55
  br i1 %56, label %57, label %82

57:                                               ; preds = %53
  %58 = load ptr, ptr %17, align 8
  %59 = call ptr @__cxa_begin_catch(ptr %58) #3
  store ptr %59, ptr %20, align 8
  %60 = invoke noundef nonnull align 8 dereferenceable(8) ptr @_ZN6casadi4uerrEv()
          to label %61 unwind label %74

61:                                               ; preds = %57
  %62 = invoke noundef nonnull align 8 dereferenceable(8) ptr @_ZStlsISt11char_traitsIcEERSt13basic_ostreamIcT_ES5_PKc(ptr noundef nonnull align 8 dereferenceable(8) %60, ptr noundef @.str.102)
          to label %63 unwind label %74

63:                                               ; preds = %61
  %64 = load ptr, ptr %20, align 8
  %65 = load ptr, ptr %64, align 8
  %66 = getelementptr inbounds ptr, ptr %65, i64 2
  %67 = load ptr, ptr %66, align 8
  %68 = call noundef ptr %67(ptr noundef nonnull align 8 dereferenceable(8) %64) #3
  %69 = invoke noundef nonnull align 8 dereferenceable(8) ptr @_ZStlsISt11char_traitsIcEERSt13basic_ostreamIcT_ES5_PKc(ptr noundef nonnull align 8 dereferenceable(8) %62, ptr noundef %68)
          to label %70 unwind label %74

70:                                               ; preds = %63
  %71 = invoke noundef nonnull align 8 dereferenceable(8) ptr @_ZNSolsEPFRSoS_E(ptr noundef nonnull align 8 dereferenceable(8) %69, ptr noundef @_ZSt4endlIcSt11char_traitsIcEERSt13basic_ostreamIT_T0_ES6_)
          to label %72 unwind label %74

72:                                               ; preds = %70
  store i32 -1, ptr %8, align 4
  call void @__cxa_end_catch()
  br label %80

73:                                               ; preds = %46
  store i32 0, ptr %8, align 4
  br label %80

74:                                               ; preds = %70, %63, %61, %57
  %75 = landingpad { ptr, i32 }
          cleanup
  %76 = extractvalue { ptr, i32 } %75, 0
  store ptr %76, ptr %17, align 8
  %77 = extractvalue { ptr, i32 } %75, 1
  store i32 %77, ptr %18, align 4
  invoke void @__cxa_end_catch()
          to label %78 unwind label %87

78:                                               ; preds = %74
  br label %82

79:                                               ; No predecessors!
  call void @llvm.trap()
  unreachable

80:                                               ; preds = %73, %72, %48
  %81 = load i32, ptr %8, align 4
  ret i32 %81

82:                                               ; preds = %78, %53
  %83 = load ptr, ptr %17, align 8
  %84 = load i32, ptr %18, align 4
  %85 = insertvalue { ptr, i32 } poison, ptr %83, 0
  %86 = insertvalue { ptr, i32 } %85, i32 %84, 1
  resume { ptr, i32 } %86

87:                                               ; preds = %74
  %88 = landingpad { ptr, i32 }
          catch ptr null
  %89 = extractvalue { ptr, i32 } %88, 0
  call void @__clang_call_terminate(ptr %89) #17
  unreachable
}