; Function Attrs: mustprogress uwtable
define noundef i32 @_ZN6casadi15CvodesInterface7jtimesFEP17_generic_N_VectorS2_dS2_S2_PvS2_(ptr nocapture noundef readonly %0, ptr nocapture noundef readonly %1, double noundef %2, ptr nocapture noundef readonly %3, ptr nocapture readnone %4, ptr noundef %5, ptr nocapture readnone %6) #3 align 2 personality ptr @__gxx_personality_v0 {
  %8 = invoke noundef ptr @_ZN6casadi15CvodesInterface6to_memEPv(ptr noundef %5)
          to label %9 unwind label %23

9:                                                ; preds = %7
  %10 = getelementptr inbounds i8, ptr %8, i64 528
  %11 = load ptr, ptr %10, align 8
  %12 = load ptr, ptr %3, align 8
  %13 = getelementptr inbounds i8, ptr %12, i64 16
  %14 = load ptr, ptr %13, align 8
  %15 = load ptr, ptr %0, align 8
  %16 = getelementptr inbounds i8, ptr %15, i64 16
  %17 = load ptr, ptr %16, align 8
  %18 = load ptr, ptr %1, align 8
  %19 = getelementptr inbounds i8, ptr %18, i64 16
  %20 = load ptr, ptr %19, align 8
  %21 = invoke noundef i32 @_ZNK6casadi17SundialsInterface12calc_jtimesFEPNS_14SundialsMemoryEdPKdS4_S4_S4_PdS5_(ptr noundef nonnull align 8 dereferenceable(2120) %11, ptr noundef nonnull %8, double noundef %2, ptr noundef %14, ptr noundef null, ptr noundef %17, ptr noundef null, ptr noundef %20, ptr noundef null)
          to label %22 unwind label %23

22:                                               ; preds = %9
  %.not = icmp ne i32 %21, 0
  %. = zext i1 %.not to i32
  br label %45

23:                                               ; preds = %9, %7
  %24 = landingpad { ptr, i32 }
          catch ptr @_ZTISt9exception
  %25 = extractvalue { ptr, i32 } %24, 1
  %26 = tail call i32 @llvm.eh.typeid.for(ptr nonnull @_ZTISt9exception) #20
  %27 = icmp eq i32 %25, %26
  br i1 %27, label %28, label %46

28:                                               ; preds = %23
  %29 = extractvalue { ptr, i32 } %24, 0
  %30 = tail call ptr @__cxa_begin_catch(ptr %29) #20
  %31 = invoke noundef nonnull align 8 dereferenceable(8) ptr @_ZN6casadi4uerrEv()
          to label %32 unwind label %43

32:                                               ; preds = %28
  %33 = invoke noundef nonnull align 8 dereferenceable(8) ptr @_ZStlsISt11char_traitsIcEERSt13basic_ostreamIcT_ES5_PKc(ptr noundef nonnull align 8 dereferenceable(8) %31, ptr noundef nonnull @.str.102)
          to label %34 unwind label %43

34:                                               ; preds = %32
  %35 = load ptr, ptr %30, align 8
  %36 = getelementptr inbounds i8, ptr %35, i64 16
  %37 = load ptr, ptr %36, align 8
  %38 = tail call noundef ptr %37(ptr noundef nonnull align 8 dereferenceable(8) %30) #20
  %39 = invoke noundef nonnull align 8 dereferenceable(8) ptr @_ZStlsISt11char_traitsIcEERSt13basic_ostreamIcT_ES5_PKc(ptr noundef nonnull align 8 dereferenceable(8) %33, ptr noundef %38)
          to label %40 unwind label %43

40:                                               ; preds = %34
  %41 = invoke noundef nonnull align 8 dereferenceable(8) ptr @_ZNSolsEPFRSoS_E(ptr noundef nonnull align 8 dereferenceable(8) %39, ptr noundef nonnull @_ZSt4endlIcSt11char_traitsIcEERSt13basic_ostreamIT_T0_ES6_)
          to label %42 unwind label %43

42:                                               ; preds = %40
  tail call void @__cxa_end_catch()
  br label %45

43:                                               ; preds = %40, %34, %32, %28
  %44 = landingpad { ptr, i32 }
          cleanup
  invoke void @__cxa_end_catch()
          to label %46 unwind label %47

45:                                               ; preds = %22, %42
  %.0 = phi i32 [ -1, %42 ], [ %., %22 ]
  ret i32 %.0

46:                                               ; preds = %43, %23
  %.merged = phi { ptr, i32 } [ %44, %43 ], [ %24, %23 ]
  resume { ptr, i32 } %.merged

47:                                               ; preds = %43
  %48 = landingpad { ptr, i32 }
          catch ptr null
  %49 = extractvalue { ptr, i32 } %48, 0
  tail call void @__clang_call_terminate(ptr %49) #23
  unreachable
}